; Function Attrs: nounwind uwtable
define ptr @l_List_forIn_x27_loop___at_Lean_Server_Test_Runner_main___spec__36___lambda__2(ptr noundef %0, ptr noundef %1, ptr noundef %2, ptr noundef %3, ptr noundef %4, ptr noundef %5, ptr noundef %6, ptr noundef %7, ptr noundef %8, ptr noundef %9) #1 {
  %11 = ptrtoint ptr %7 to i64
  %12 = and i64 %11, 1
  %.not.i66 = icmp eq i64 %12, 0
  br i1 %.not.i66, label %16, label %13

13:                                               ; preds = %10
  %14 = lshr i64 %11, 1
  %15 = trunc i64 %14 to i32
  br label %lean_obj_tag.exit

16:                                               ; preds = %10
  %17 = getelementptr i8, ptr %7, i64 4
  %.val.i = load i32, ptr %17, align 4
  %18 = lshr i32 %.val.i, 24
  br label %lean_obj_tag.exit

lean_obj_tag.exit:                                ; preds = %13, %16
  %.0.i = phi i32 [ %15, %13 ], [ %18, %16 ]
  %19 = icmp eq i32 %.0.i, 0
  br i1 %19, label %20, label %129

20:                                               ; preds = %lean_obj_tag.exit
  %21 = ptrtoint ptr %6 to i64
  %22 = and i64 %21, 1
  %.not79 = icmp eq i64 %22, 0
  br i1 %.not79, label %23, label %lean_dec.exit47

23:                                               ; preds = %20
  %24 = load i32, ptr %6, align 4, !tbaa !8
  %25 = icmp sgt i32 %24, 1
  br i1 %25, label %26, label %28, !prof !11

26:                                               ; preds = %23
  %27 = add nsw i32 %24, -1
  store i32 %27, ptr %6, align 4, !tbaa !8
  br label %lean_dec.exit47

28:                                               ; preds = %23
  %.not.i = icmp eq i32 %24, 0
  br i1 %.not.i, label %lean_dec.exit47, label %29

29:                                               ; preds = %28
  tail call void @lean_dec_ref_cold(ptr noundef nonnull %6) #6
  br label %lean_dec.exit47

lean_dec.exit47:                                  ; preds = %29, %28, %26, %20
  %30 = ptrtoint ptr %5 to i64
  %31 = and i64 %30, 1
  %.not80 = icmp eq i64 %31, 0
  br i1 %.not80, label %32, label %lean_dec.exit46

32:                                               ; preds = %lean_dec.exit47
  %33 = load i32, ptr %5, align 4, !tbaa !8
  %34 = icmp sgt i32 %33, 1
  br i1 %34, label %35, label %37, !prof !11

35:                                               ; preds = %32
  %36 = add nsw i32 %33, -1
  store i32 %36, ptr %5, align 4, !tbaa !8
  br label %lean_dec.exit46

37:                                               ; preds = %32
  %.not.i48 = icmp eq i32 %33, 0
  br i1 %.not.i48, label %lean_dec.exit46, label %38

38:                                               ; preds = %37
  tail call void @lean_dec_ref_cold(ptr noundef nonnull %5) #6
  br label %lean_dec.exit46

lean_dec.exit46:                                  ; preds = %38, %37, %35, %lean_dec.exit47
  %39 = ptrtoint ptr %4 to i64
  %40 = and i64 %39, 1
  %.not81 = icmp eq i64 %40, 0
  br i1 %.not81, label %41, label %lean_dec.exit45

41:                                               ; preds = %lean_dec.exit46
  %42 = load i32, ptr %4, align 4, !tbaa !8
  %43 = icmp sgt i32 %42, 1
  br i1 %43, label %44, label %46, !prof !11

44:                                               ; preds = %41
  %45 = add nsw i32 %42, -1
  store i32 %45, ptr %4, align 4, !tbaa !8
  br label %lean_dec.exit45

46:                                               ; preds = %41
  %.not.i50 = icmp eq i32 %42, 0
  br i1 %.not.i50, label %lean_dec.exit45, label %47

47:                                               ; preds = %46
  tail call void @lean_dec_ref_cold(ptr noundef nonnull %4) #6
  br label %lean_dec.exit45

lean_dec.exit45:                                  ; preds = %47, %46, %44, %lean_dec.exit46
  %48 = ptrtoint ptr %3 to i64
  %49 = and i64 %48, 1
  %.not82 = icmp eq i64 %49, 0
  br i1 %.not82, label %50, label %lean_dec.exit44

50:                                               ; preds = %lean_dec.exit45
  %51 = load i32, ptr %3, align 4, !tbaa !8
  %52 = icmp sgt i32 %51, 1
  br i1 %52, label %53, label %55, !prof !11

53:                                               ; preds = %50
  %54 = add nsw i32 %51, -1
  store i32 %54, ptr %3, align 4, !tbaa !8
  br label %lean_dec.exit44

55:                                               ; preds = %50
  %.not.i52 = icmp eq i32 %51, 0
  br i1 %.not.i52, label %lean_dec.exit44, label %56

56:                                               ; preds = %55
  tail call void @lean_dec_ref_cold(ptr noundef nonnull %3) #6
  br label %lean_dec.exit44

lean_dec.exit44:                                  ; preds = %56, %55, %53, %lean_dec.exit45
  %57 = ptrtoint ptr %2 to i64
  %58 = and i64 %57, 1
  %.not83 = icmp eq i64 %58, 0
  br i1 %.not83, label %59, label %lean_dec.exit43

59:                                               ; preds = %lean_dec.exit44
  %60 = load i32, ptr %2, align 4, !tbaa !8
  %61 = icmp sgt i32 %60, 1
  br i1 %61, label %62, label %64, !prof !11

62:                                               ; preds = %59
  %63 = add nsw i32 %60, -1
  store i32 %63, ptr %2, align 4, !tbaa !8
  br label %lean_dec.exit43

64:                                               ; preds = %59
  %.not.i54 = icmp eq i32 %60, 0
  br i1 %.not.i54, label %lean_dec.exit43, label %65

65:                                               ; preds = %64
  tail call void @lean_dec_ref_cold(ptr noundef nonnull %2) #6
  br label %lean_dec.exit43

lean_dec.exit43:                                  ; preds = %65, %64, %62, %lean_dec.exit44
  %66 = ptrtoint ptr %1 to i64
  %67 = and i64 %66, 1
  %.not84 = icmp eq i64 %67, 0
  br i1 %.not84, label %68, label %lean_dec.exit42

68:                                               ; preds = %lean_dec.exit43
  %69 = load i32, ptr %1, align 4, !tbaa !8
  %70 = icmp sgt i32 %69, 1
  br i1 %70, label %71, label %73, !prof !11

71:                                               ; preds = %68
  %72 = add nsw i32 %69, -1
  store i32 %72, ptr %1, align 4, !tbaa !8
  br label %lean_dec.exit42

73:                                               ; preds = %68
  %.not.i56 = icmp eq i32 %69, 0
  br i1 %.not.i56, label %lean_dec.exit42, label %74

74:                                               ; preds = %73
  tail call void @lean_dec_ref_cold(ptr noundef nonnull %1) #6
  br label %lean_dec.exit42

lean_dec.exit42:                                  ; preds = %74, %73, %71, %lean_dec.exit43
  %75 = getelementptr inbounds nuw i8, ptr %7, i64 8
  %76 = load ptr, ptr %75, align 8, !tbaa !4
  %77 = ptrtoint ptr %76 to i64
  %78 = and i64 %77, 1
  %.not85 = icmp eq i64 %78, 0
  br i1 %.not85, label %79, label %lean_inc.exit38

79:                                               ; preds = %lean_dec.exit42
  %.val.i67 = load i32, ptr %76, align 4, !tbaa !8
  %80 = icmp sgt i32 %.val.i67, 0
  br i1 %80, label %81, label %83, !prof !11

81:                                               ; preds = %79
  %82 = add nuw i32 %.val.i67, 1
  store i32 %82, ptr %76, align 4, !tbaa !8
  br label %lean_inc.exit38

83:                                               ; preds = %79
  %.not.i68 = icmp eq i32 %.val.i67, 0
  br i1 %.not.i68, label %lean_inc.exit38, label %84

84:                                               ; preds = %83
  tail call void @lean_inc_ref_cold(ptr noundef nonnull %76) #6
  br label %lean_inc.exit38

lean_inc.exit38:                                  ; preds = %84, %83, %81, %lean_dec.exit42
  br i1 %.not.i66, label %85, label %lean_dec.exit41

85:                                               ; preds = %lean_inc.exit38
  %86 = load i32, ptr %7, align 4, !tbaa !8
  %87 = icmp sgt i32 %86, 1
  br i1 %87, label %88, label %90, !prof !11

88:                                               ; preds = %85
  %89 = add nsw i32 %86, -1
  store i32 %89, ptr %7, align 4, !tbaa !8
  br label %lean_dec.exit41

90:                                               ; preds = %85
  %.not.i58 = icmp eq i32 %86, 0
  br i1 %.not.i58, label %lean_dec.exit41, label %91

91:                                               ; preds = %90
  tail call void @lean_dec_ref_cold(ptr noundef nonnull %7) #6
  br label %lean_dec.exit41

lean_dec.exit41:                                  ; preds = %91, %90, %88, %lean_inc.exit38
  %92 = getelementptr inbounds nuw i8, ptr %0, i64 8
  %93 = load ptr, ptr %92, align 8, !tbaa !4
  %94 = ptrtoint ptr %93 to i64
  %95 = and i64 %94, 1
  %.not87 = icmp eq i64 %95, 0
  br i1 %.not87, label %96, label %lean_inc.exit37

96:                                               ; preds = %lean_dec.exit41
  %.val.i69 = load i32, ptr %93, align 4, !tbaa !8
  %97 = icmp sgt i32 %.val.i69, 0
  br i1 %97, label %98, label %100, !prof !11

98:                                               ; preds = %96
  %99 = add nuw i32 %.val.i69, 1
  store i32 %99, ptr %93, align 4, !tbaa !8
  br label %lean_inc.exit37

100:                                              ; preds = %96
  %.not.i70 = icmp eq i32 %.val.i69, 0
  br i1 %.not.i70, label %lean_inc.exit37, label %101

101:                                              ; preds = %100
  tail call void @lean_inc_ref_cold(ptr noundef nonnull %93) #6
  br label %lean_inc.exit37

lean_inc.exit37:                                  ; preds = %101, %100, %98, %lean_dec.exit41
  %102 = ptrtoint ptr %0 to i64
  %103 = and i64 %102, 1
  %.not88 = icmp eq i64 %103, 0
  br i1 %.not88, label %104, label %lean_dec.exit40

104:                                              ; preds = %lean_inc.exit37
  %105 = load i32, ptr %0, align 4, !tbaa !8
  %106 = icmp sgt i32 %105, 1
  br i1 %106, label %107, label %109, !prof !11

107:                                              ; preds = %104
  %108 = add nsw i32 %105, -1
  store i32 %108, ptr %0, align 4, !tbaa !8
  br label %lean_dec.exit40

109:                                              ; preds = %104
  %.not.i60 = icmp eq i32 %105, 0
  br i1 %.not.i60, label %lean_dec.exit40, label %110

110:                                              ; preds = %109
  tail call void @lean_dec_ref_cold(ptr noundef nonnull %0) #6
  br label %lean_dec.exit40

lean_dec.exit40:                                  ; preds = %110, %109, %107, %lean_inc.exit37
  %111 = getelementptr inbounds nuw i8, ptr %93, i64 16
  %112 = load ptr, ptr %111, align 8, !tbaa !4
  %113 = ptrtoint ptr %112 to i64
  %114 = and i64 %113, 1
  %.not89 = icmp eq i64 %114, 0
  br i1 %.not89, label %115, label %lean_inc.exit36

115:                                              ; preds = %lean_dec.exit40
  %.val.i72 = load i32, ptr %112, align 4, !tbaa !8
  %116 = icmp sgt i32 %.val.i72, 0
  br i1 %116, label %117, label %119, !prof !11

117:                                              ; preds = %115
  %118 = add nuw i32 %.val.i72, 1
  store i32 %118, ptr %112, align 4, !tbaa !8
  br label %lean_inc.exit36

119:                                              ; preds = %115
  %.not.i73 = icmp eq i32 %.val.i72, 0
  br i1 %.not.i73, label %lean_inc.exit36, label %120

120:                                              ; preds = %119
  tail call void @lean_inc_ref_cold(ptr noundef nonnull %112) #6
  br label %lean_inc.exit36

lean_inc.exit36:                                  ; preds = %120, %119, %117, %lean_dec.exit40
  br i1 %.not87, label %121, label %lean_dec.exit39

121:                                              ; preds = %lean_inc.exit36
  %122 = load i32, ptr %93, align 4, !tbaa !8
  %123 = icmp sgt i32 %122, 1
  br i1 %123, label %124, label %126, !prof !11

124:                                              ; preds = %121
  %125 = add nsw i32 %122, -1
  store i32 %125, ptr %93, align 4, !tbaa !8
  br label %lean_dec.exit39

126:                                              ; preds = %121
  %.not.i62 = icmp eq i32 %122, 0
  br i1 %.not.i62, label %lean_dec.exit39, label %127

127:                                              ; preds = %126
  tail call void @lean_dec_ref_cold(ptr noundef nonnull %93) #6
  br label %lean_dec.exit39

lean_dec.exit39:                                  ; preds = %127, %126, %124, %lean_inc.exit36
  %128 = tail call ptr @lean_apply_4(ptr noundef %112, ptr noundef nonnull inttoptr (i64 1 to ptr), ptr noundef %76, ptr noundef %8, ptr noundef %9) #6
  br label %148

129:                                              ; preds = %lean_obj_tag.exit
  %130 = getelementptr inbounds nuw i8, ptr %7, i64 8
  %131 = load ptr, ptr %130, align 8, !tbaa !4
  %132 = ptrtoint ptr %131 to i64
  %133 = and i64 %132, 1
  %.not = icmp eq i64 %133, 0
  br i1 %.not, label %134, label %lean_inc.exit

134:                                              ; preds = %129
  %.val.i75 = load i32, ptr %131, align 4, !tbaa !8
  %135 = icmp sgt i32 %.val.i75, 0
  br i1 %135, label %136, label %138, !prof !11

136:                                              ; preds = %134
  %137 = add nuw i32 %.val.i75, 1
  store i32 %137, ptr %131, align 4, !tbaa !8
  br label %lean_inc.exit

138:                                              ; preds = %134
  %.not.i76 = icmp eq i32 %.val.i75, 0
  br i1 %.not.i76, label %lean_inc.exit, label %139

139:                                              ; preds = %138
  tail call void @lean_inc_ref_cold(ptr noundef nonnull %131) #6
  br label %lean_inc.exit

lean_inc.exit:                                    ; preds = %139, %138, %136, %129
  br i1 %.not.i66, label %140, label %lean_dec.exit

140:                                              ; preds = %lean_inc.exit
  %141 = load i32, ptr %7, align 4, !tbaa !8
  %142 = icmp sgt i32 %141, 1
  br i1 %142, label %143, label %145, !prof !11

143:                                              ; preds = %140
  %144 = add nsw i32 %141, -1
  store i32 %144, ptr %7, align 4, !tbaa !8
  br label %lean_dec.exit

145:                                              ; preds = %140
  %.not.i64 = icmp eq i32 %141, 0
  br i1 %.not.i64, label %lean_dec.exit, label %146

146:                                              ; preds = %145
  tail call void @lean_dec_ref_cold(ptr noundef nonnull %7) #6
  br label %lean_dec.exit

lean_dec.exit:                                    ; preds = %146, %145, %143, %lean_inc.exit
  %147 = tail call ptr @l_List_forIn_x27_loop___at_Lean_Server_Test_Runner_main___spec__36(ptr noundef %1, ptr noundef %2, ptr noundef %0, ptr noundef %3, ptr noundef %4, ptr noundef %5, ptr noundef %6, ptr noundef %131, ptr nonnull poison, ptr noundef %8, ptr noundef %9)
  br label %148

148:                                              ; preds = %lean_dec.exit, %lean_dec.exit39
  %.0 = phi ptr [ %128, %lean_dec.exit39 ], [ %147, %lean_dec.exit ]
  ret ptr %.0
}